; Function Attrs: nounwind uwtable
define dso_local range(i32 -2147483647, -2147483648) i32 @uv_udp_set_ttl(ptr noundef readonly captures(none) %0, i32 noundef %1) local_unnamed_addr #0 {
  %3 = alloca i32, align 4
  %4 = add i32 %1, -256
  %or.cond = icmp ult i32 %4, -255
  br i1 %or.cond, label %20, label %5

5:                                                ; preds = %2
  call void @llvm.lifetime.start.p0(i64 4, ptr nonnull %3)
  store i32 %1, ptr %3, align 4
  %6 = getelementptr inbounds nuw i8, ptr %0, i64 88
  %7 = load i32, ptr %6, align 8
  %8 = and i32 %7, 4194304
  %.not.i.i = icmp eq i32 %8, 0
  %9 = getelementptr inbounds nuw i8, ptr %0, i64 176
  %10 = load i32, ptr %9, align 8
  br i1 %.not.i.i, label %13, label %11

11:                                               ; preds = %5
  %12 = call i32 @setsockopt(i32 noundef %10, i32 noundef 41, i32 noundef range(i32 16, 20) 16, ptr noundef nonnull %3, i32 noundef 4) #9
  br label %15

13:                                               ; preds = %5
  %14 = call i32 @setsockopt(i32 noundef %10, i32 noundef 0, i32 noundef range(i32 2, 35) 2, ptr noundef nonnull %3, i32 noundef 4) #9
  br label %15

15:                                               ; preds = %13, %11
  %.0.i.i = phi i32 [ %12, %11 ], [ %14, %13 ]
  %.not11.i.i = icmp eq i32 %.0.i.i, 0
  br i1 %.not11.i.i, label %uv__setsockopt_maybe_char.exit, label %16

16:                                               ; preds = %15
  %17 = tail call ptr @__errno_location() #10
  %18 = load i32, ptr %17, align 4
  %19 = sub nsw i32 0, %18
  br label %uv__setsockopt_maybe_char.exit

uv__setsockopt_maybe_char.exit:                   ; preds = %15, %16
  %.0.i = phi i32 [ %19, %16 ], [ 0, %15 ]
  call void @llvm.lifetime.end.p0(i64 4, ptr nonnull %3)
  br label %20

20:                                               ; preds = %2, %uv__setsockopt_maybe_char.exit
  %.0 = phi i32 [ %.0.i, %uv__setsockopt_maybe_char.exit ], [ -22, %2 ]
  ret i32 %.0
}